
lab1.elf:     file format elf32-littlearm

Sections:
Idx Name          Size      VMA       LMA       File off  Algn
  0 .text         000000b0  08000000  08000000  00010000  2**2
                  CONTENTS, ALLOC, LOAD, READONLY, CODE
  1 .init         00000004  080000b0  080000b0  000100b0  2**2
                  CONTENTS, ALLOC, LOAD, READONLY, CODE
  2 .fini         00000004  080000b4  080000b4  000100b4  2**2
                  CONTENTS, ALLOC, LOAD, READONLY, CODE
  3 .data         00000000  20000000  20000000  000100b8  2**0
                  CONTENTS, ALLOC, LOAD, DATA
  4 .bss          00000000  20000000  20000000  00000000  2**0
                  ALLOC
  5 .ARM.attributes 00000028  00000000  00000000  000100b8  2**0
                  CONTENTS, READONLY
  6 .debug_line   0000008d  00000000  00000000  000100e0  2**0
                  CONTENTS, READONLY, DEBUGGING, OCTETS
  7 .debug_line_str 00000048  00000000  00000000  0001016d  2**0
                  CONTENTS, READONLY, DEBUGGING, OCTETS
  8 .debug_info   00000025  00000000  00000000  000101b5  2**0
                  CONTENTS, READONLY, DEBUGGING, OCTETS
  9 .debug_abbrev 00000014  00000000  00000000  000101da  2**0
                  CONTENTS, READONLY, DEBUGGING, OCTETS
 10 .debug_aranges 00000020  00000000  00000000  000101f0  2**3
                  CONTENTS, READONLY, DEBUGGING, OCTETS
 11 .debug_str    00000054  00000000  00000000  00010210  2**0
                  CONTENTS, READONLY, DEBUGGING, OCTETS

Disassembly of section .text:

08000000 <vector_table>:
 8000000:	20002000 	.word	0x20002000
 8000004:	08000021 	.word	0x08000021
 8000008:	08000057 	.word	0x08000057
 800000c:	08000057 	.word	0x08000057
 8000010:	20000000 	.word	0x20000000
 8000014:	20000000 	.word	0x20000000
 8000018:	20000000 	.word	0x20000000
 800001c:	20000000 	.word	0x20000000

08000020 <Reset_Handler>:

/* reset handler */
.section .text
Reset_Handler:
	/* set stack pointer */
	ldr r0, =_estack
 8000020:	4817      	ldr	r0, [pc, #92]	; (8000080 <main+0x28>)
	mov sp, r0
 8000022:	4685      	mov	sp, r0

	/* initialize data and bss
	 * not necessary for rom only code
	 * */
	bl init_data
 8000024:	f000 f803 	bl	800002e <init_data>
	/* call main */
	bl main
 8000028:	f000 f816 	bl	8000058 <main>
	/* trap if returned */
	b .
 800002c:	e7fe      	b.n	800002c <Reset_Handler+0xc>

0800002e <init_data>:
/* initialize data and bss sections */
.section .text
init_data:

	/* copy rom to ram */
	ldr r0, =_sdata
 800002e:	4815      	ldr	r0, [pc, #84]	; (8000084 <main+0x2c>)
	ldr r1, =_edata
 8000030:	4915      	ldr	r1, [pc, #84]	; (8000088 <main+0x30>)
	ldr r2, =_sidata
 8000032:	4a16      	ldr	r2, [pc, #88]	; (800008c <main+0x34>)
	movs r3, #0
 8000034:	2300      	movs	r3, #0
	b LoopCopyDataInit
 8000036:	e002      	b.n	800003e <LoopCopyDataInit>

08000038 <CopyDataInit>:

	CopyDataInit:
		ldr r4, [r2, r3]
 8000038:	58d4      	ldr	r4, [r2, r3]
		str r4, [r0, r3]
 800003a:	50c4      	str	r4, [r0, r3]
		adds r3, r3, #4
 800003c:	3304      	adds	r3, #4

0800003e <LoopCopyDataInit>:

	LoopCopyDataInit:
		adds r4, r0, r3
 800003e:	18c4      	adds	r4, r0, r3
		cmp r4, r1
 8000040:	428c      	cmp	r4, r1
		bcc CopyDataInit
 8000042:	d3f9      	bcc.n	8000038 <CopyDataInit>

	/* zero bss */
	ldr r2, =_sbss
 8000044:	4a12      	ldr	r2, [pc, #72]	; (8000090 <main+0x38>)
	ldr r4, =_ebss
 8000046:	4c13      	ldr	r4, [pc, #76]	; (8000094 <main+0x3c>)
	movs r3, #0
 8000048:	2300      	movs	r3, #0
	b LoopFillZerobss
 800004a:	e001      	b.n	8000050 <LoopFillZerobss>

0800004c <FillZerobss>:

	FillZerobss:
		str  r3, [r2]
 800004c:	6013      	str	r3, [r2, #0]
		adds r2, r2, #4
 800004e:	3204      	adds	r2, #4

08000050 <LoopFillZerobss>:

	LoopFillZerobss:
		cmp r2, r4
 8000050:	42a2      	cmp	r2, r4
		bcc FillZerobss
 8000052:	d3fb      	bcc.n	800004c <FillZerobss>

	bx lr
 8000054:	4770      	bx	lr

08000056 <Default_Handler>:


/* default handler */
.section .text
Default_Handler:
	b Default_Handler
 8000056:	e7fe      	b.n	8000056 <Default_Handler>

08000058 <main>:

/* main function */
.section .text
main:
	//////Enable RCC_IOPENR For A//////
	ldr r0,=RCC_IOPENR
 8000058:	480f      	ldr	r0, [pc, #60]	; (8000098 <main+0x40>)
	ldr r1, [r0]
 800005a:	6801      	ldr	r1, [r0, #0]

	movs r2, #0x01 //0000 0001, For enabling RCC mask
 800005c:	2201      	movs	r2, #1
	orrs r1, r1, r2
 800005e:	4311      	orrs	r1, r2
	str r1, [r0] //Enable RCC mask
 8000060:	6001      	str	r1, [r0, #0]
	///////////////////////////////////

	///////////GPIOx_MODER/////////
	ldr r0,=GPIOA_MODER
 8000062:	480e      	ldr	r0, [pc, #56]	; (800009c <main+0x44>)
	ldr r1,[r0]
 8000064:	6801      	ldr	r1, [r0, #0]

	ldr r2,=0x30000
 8000066:	4a0e      	ldr	r2, [pc, #56]	; (80000a0 <main+0x48>)
	mvns r2,r2
 8000068:	43d2      	mvns	r2, r2
	ands r1, r1, r2
 800006a:	4011      	ands	r1, r2
	ldr r2, =0x10000
 800006c:	4a0d      	ldr	r2, [pc, #52]	; (80000a4 <main+0x4c>)
	orrs r1,r1,r2
 800006e:	4311      	orrs	r1, r2

	str r1, [r0]
 8000070:	6001      	str	r1, [r0, #0]
	///////////////////////////////

	///////////GPIOA_ODR//////////
	ldr r0,=GPIOA_ODR
 8000072:	480d      	ldr	r0, [pc, #52]	; (80000a8 <main+0x50>)
	ldr r1, [r0]
 8000074:	6801      	ldr	r1, [r0, #0]

	ldr r2,=0x100
 8000076:	4a0d      	ldr	r2, [pc, #52]	; (80000ac <main+0x54>)
	orrs r1, r1, r2
 8000078:	4311      	orrs	r1, r2

	str r1, [r0]
 800007a:	6001      	str	r1, [r0, #0]


	/* for(;;); */
	b .
 800007c:	e7fe      	b.n	800007c <main+0x24>

	/* this should never get executed */
	nop
 800007e:	46c0      	nop			; (mov r8, r8)
	ldr r0, =_estack
 8000080:	20002000 	.word	0x20002000
	ldr r0, =_sdata
 8000084:	20000000 	.word	0x20000000
	ldr r1, =_edata
 8000088:	20000000 	.word	0x20000000
	ldr r2, =_sidata
 800008c:	080000b8 	.word	0x080000b8
	ldr r2, =_sbss
 8000090:	20000000 	.word	0x20000000
	ldr r4, =_ebss
 8000094:	20000000 	.word	0x20000000
	ldr r0,=RCC_IOPENR
 8000098:	40021034 	.word	0x40021034
	ldr r0,=GPIOA_MODER
 800009c:	50000000 	.word	0x50000000
	ldr r2,=0x30000
 80000a0:	00030000 	.word	0x00030000
	ldr r2, =0x10000
 80000a4:	00010000 	.word	0x00010000
	ldr r0,=GPIOA_ODR
 80000a8:	50000014 	.word	0x50000014
	ldr r2,=0x100
 80000ac:	00000100 	.word	0x00000100

Disassembly of section .init:

080000b0 <_init>:
 80000b0:	b5f8      	push	{r3, r4, r5, r6, r7, lr}
 80000b2:	46c0      	nop			; (mov r8, r8)

Disassembly of section .fini:

080000b4 <_fini>:
 80000b4:	b5f8      	push	{r3, r4, r5, r6, r7, lr}
 80000b6:	46c0      	nop			; (mov r8, r8)
